target datalayout = "e-m:e-p270:32:32-p271:32:32-p272:64:64-i64:64-i128:128-f80:128-n8:16:32:64-S128"
target triple = "x86_64-pc-linux-gnu"

%union.BitPatternConversion = type { i64 }

@_ZL4gNan = internal constant %union.BitPatternConversion { i64 9221120237041090560 }, align 8

; Function Attrs: mustprogress nounwind uwtable
define internal noundef signext i8 @_ZL9u_signBitd(double noundef %0) #0 {
  %2 = alloca double, align 8
  %3 = alloca i8, align 1
  store double %0, ptr %2, align 8, !tbaa !26
  call void @llvm.lifetime.start.p0(i64 1, ptr %3) #14
  %4 = getelementptr inbounds nuw i8, ptr %2, i64 8
  %5 = getelementptr inbounds i8, ptr %4, i64 -1
  %6 = load i8, ptr %5, align 1, !tbaa !28
  store i8 %6, ptr %3, align 1, !tbaa !28
  %7 = load i8, ptr %3, align 1, !tbaa !28
  %8 = zext i8 %7 to i32
  %9 = and i32 %8, 128
  %10 = icmp ne i32 %9, 0
  %11 = zext i1 %10 to i8
  call void @llvm.lifetime.end.p0(i64 1, ptr %3) #14
  ret i8 %11
}

; Function Attrs: mustprogress nounwind uwtable
define double @uprv_getNaN_77() #0 {
  %1 = load double, ptr @_ZL4gNan, align 8, !tbaa !28
  ret double %1
}

; Function Attrs: mustprogress nounwind uwtable
define signext i8 @uprv_isNaN_77(double noundef %0) #0 {
  %2 = alloca double, align 8
  %3 = alloca %union.BitPatternConversion, align 8
  store double %0, ptr %2, align 8, !tbaa !26
  call void @llvm.lifetime.start.p0(i64 8, ptr %3) #14
  %4 = load double, ptr %2, align 8, !tbaa !26
  store double %4, ptr %3, align 8, !tbaa !28
  %5 = load i64, ptr %3, align 8, !tbaa !28
  %6 = and i64 %5, 9223372036854775807
  %7 = icmp sgt i64 %6, 9218868437227405312
  %8 = zext i1 %7 to i8
  call void @llvm.lifetime.end.p0(i64 8, ptr %3) #14
  ret i8 %8
}

; Function Attrs: mustprogress uwtable
define double @uprv_fmax_77(double noundef %0, double noundef %1) #1 {
  %3 = alloca double, align 8
  %4 = alloca double, align 8
  %5 = alloca double, align 8
  store double %0, ptr %4, align 8, !tbaa !26
  store double %1, ptr %5, align 8, !tbaa !26
  %6 = load double, ptr %4, align 8, !tbaa !26
  %7 = call signext i8 @uprv_isNaN_77(double noundef %6)
  %8 = icmp ne i8 %7, 0
  br i1 %8, label %13, label %9

9:                                                ; preds = %2
  %10 = load double, ptr %5, align 8, !tbaa !26
  %11 = call signext i8 @uprv_isNaN_77(double noundef %10)
  %12 = icmp ne i8 %11, 0
  br i1 %12, label %13, label %15

13:                                               ; preds = %9, %2
  %14 = call double @uprv_getNaN_77()
  store double %14, ptr %3, align 8
  br label %37

15:                                               ; preds = %9
  %16 = load double, ptr %4, align 8, !tbaa !26
  %17 = fcmp oeq double %16, 0.000000e+00
  br i1 %17, label %18, label %27

18:                                               ; preds = %15
  %19 = load double, ptr %5, align 8, !tbaa !26
  %20 = fcmp oeq double %19, 0.000000e+00
  br i1 %20, label %21, label %27

21:                                               ; preds = %18
  %22 = load double, ptr %4, align 8, !tbaa !26
  %23 = call noundef signext i8 @_ZL9u_signBitd(double noundef %22)
  %24 = icmp ne i8 %23, 0
  br i1 %24, label %25, label %27

25:                                               ; preds = %21
  %26 = load double, ptr %5, align 8, !tbaa !26
  store double %26, ptr %3, align 8
  br label %37

27:                                               ; preds = %21, %18, %15
  %28 = load double, ptr %4, align 8, !tbaa !26
  %29 = load double, ptr %5, align 8, !tbaa !26
  %30 = fcmp ogt double %28, %29
  br i1 %30, label %31, label %33

31:                                               ; preds = %27
  %32 = load double, ptr %4, align 8, !tbaa !26
  br label %35

33:                                               ; preds = %27
  %34 = load double, ptr %5, align 8, !tbaa !26
  br label %35

35:                                               ; preds = %33, %31
  %36 = phi double [ %32, %31 ], [ %34, %33 ]
  store double %36, ptr %3, align 8
  br label %37

37:                                               ; preds = %35, %25, %13
  %38 = load double, ptr %3, align 8
  ret double %38
}