; Function Attrs: mustprogress nofree norecurse nosync nounwind willreturn memory(none) uwtable
define noundef double @uprv_fmax_77(double noundef %0, double noundef %1) local_unnamed_addr #12 {
  %3 = tail call double @llvm.fabs.f64(double %0)
  %4 = bitcast double %3 to i64
  %5 = icmp samesign ult i64 %4, 9218868437227405313
  br i1 %5, label %6, label %17

6:                                                ; preds = %2
  %7 = tail call double @llvm.fabs.f64(double %1)
  %8 = bitcast double %7 to i64
  %9 = icmp samesign ult i64 %8, 9218868437227405313
  br i1 %9, label %10, label %17

10:                                               ; preds = %6
  %11 = fcmp oeq double %0, 0.000000e+00
  %12 = fcmp oeq double %1, 0.000000e+00
  %or.cond = and i1 %11, %12
  br i1 %or.cond, label %13, label %14

13:                                               ; preds = %10
  %.not15 = tail call i1 @llvm.is.fpclass.f64(double %0, i32 64)
  br i1 %.not15, label %14, label %17

14:                                               ; preds = %13, %10
  %15 = fcmp ogt double %0, %1
  %16 = select i1 %15, double %0, double %1
  br label %17

17:                                               ; preds = %2, %6, %13, %14
  %.0 = phi double [ %16, %14 ], [ %1, %13 ], [ 0x7FF8000000000000, %6 ], [ 0x7FF8000000000000, %2 ]
  ret double %.0
}